Certificate:
    Data:
        Version: 3 (0x2)
        Serial Number: 1 (0x1)
    Signature Algorithm: sha256WithRSAEncryption
        Issuer: CN=devcert
        Validity
            Not Before: Apr 19 21:31:22 2020 GMT
            Not After : Jul 23 21:31:22 2022 GMT
        Subject: CN=localhost
        Subject Public Key Info:
            Public Key Algorithm: rsaEncryption
                Public-Key: (2048 bit)
                Modulus:
                    00:ba:73:5a:23:ef:7f:81:45:07:c3:3e:8a:c7:bb:
                    28:79:a2:19:c9:08:76:ee:d1:c6:71:16:15:9b:ec:
                    02:9a:42:18:d8:4f:23:1c:b4:4f:b7:16:67:7a:84:
                    e8:ff:cc:56:e8:9c:3d:6b:d4:8a:25:04:f8:1d:b5:
                    87:58:40:87:ef:a8:25:39:28:f2:ea:23:8a:2c:18:
                    8b:81:af:20:47:95:95:42:25:09:62:16:05:92:61:
                    e0:fb:04:16:62:7c:c6:a1:8b:e4:de:8a:14:bd:b5:
                    e2:50:09:6d:60:5e:c6:dd:b7:2b:4d:5d:12:ce:08:
                    0f:0c:20:98:77:73:26:0c:70:59:48:4b:5f:a4:5f:
                    48:17:2f:86:83:f7:c4:ba:0d:f7:89:f5:04:4f:1b:
                    88:88:fc:49:dd:7c:55:03:0d:bf:67:8c:2a:27:cf:
                    c6:f5:a1:48:83:51:d4:2e:8d:20:ee:8e:86:63:39:
                    4f:d2:22:d3:46:99:cc:ba:f6:d8:4d:64:69:1e:75:
                    eb:c9:d6:6b:fb:a7:19:c0:48:9f:32:66:ed:0b:d6:
                    b7:38:bb:cf:80:44:4e:da:32:a5:0d:84:03:6b:81:
                    9a:46:2b:1f:28:e6:a8:87:0a:5a:23:ae:ed:f8:97:
                    b0:c5:f0:2e:bb:f0:f3:7b:a8:43:ff:24:01:30:d1:
                    5d:bb
                Exponent: 65537 (0x10001)
        X509v3 extensions:
            X509v3 Basic Constraints: critical
                CA:FALSE
            X509v3 Subject Key Identifier: 
                BE:9A:E9:D9:DE:71:A7:96:1E:A7:E7:8C:DF:91:DF:68:43:1A:C8:FB
            X509v3 Authority Key Identifier: 
                keyid:9E:01:B4:85:21:28:1F:A1:D1:50:B6:1D:BA:4E:55:2C:45:D7:77:6B
                DirName:/CN=devcert
                serial:A5:6B:7A:73:E3:AD:9C:BA

            X509v3 Key Usage: critical
                Digital Signature, Key Encipherment
            X509v3 Extended Key Usage: 
                TLS Web Server Authentication
            X509v3 Subject Alternative Name: 
                DNS:localhost, DNS:*.localhost
    Signature Algorithm: sha256WithRSAEncryption
         1e:fe:02:e3:f8:b1:ca:3a:9a:c4:ce:a9:e0:b7:21:ee:b7:af:
         3f:bb:c4:d7:9f:56:00:f2:fa:94:3c:db:4c:3e:32:13:fe:d6:
         2f:84:6b:21:6d:3f:4d:71:db:22:ea:57:b9:52:85:7f:21:26:
         70:cf:25:f1:c2:25:5f:05:0b:e2:43:4c:68:9d:be:ed:e5:cc:
         eb:2b:6e:6e:83:57:13:20:71:bb:84:fe:0e:e3:56:31:ed:1b:
         81:42:f0:28:80:2f:90:f6:81:4b:ec:ae:33:0a:cc:8f:14:d6:
         ee:f1:04:d5:7f:3a:18:8c:2a:5f:0f:5b:a7:78:40:8a:c4:5c:
         1a:67:e5:fb:80:22:6e:60:b7:e9:87:5f:03:a6:a4:99:ae:18:
         b6:d6:7b:2a:96:67:c8:56:b6:e1:fc:03:86:68:16:b4:6a:01:
         9f:f5:a5:ce:68:a7:50:6c:0d:a8:3f:77:3d:f4:8f:fa:64:b5:
         7d:72:aa:cb:bf:d2:e8:3a:d5:b4:99:17:d4:ba:1f:a7:9a:a4:
         c1:63:42:64:73:73:50:4e:38:86:05:3d:e7:91:1f:1b:b3:fa:
         bc:9d:b3:25:75:53:49:53:ef:98:40:22:2e:f4:c4:f3:b0:ad:
         35:47:60:13:86:a2:29:db:3c:ba:a4:37:16:13:aa:cb:e6:38:
         94:22:6f:7b
-----BEGIN CERTIFICATE-----
MIIDXjCCAkagAwIBAgIBATANBgkqhkiG9w0BAQsFADASMRAwDgYDVQQDDAdkZXZj
ZXJ0MB4XDTIwMDQxOTIxMzEyMloXDTIyMDcyMzIxMzEyMlowFDESMBAGA1UEAwwJ
bG9jYWxob3N0MIIBIjANBgkqhkiG9w0BAQEFAAOCAQ8AMIIBCgKCAQEAunNaI+9/
gUUHwz6Kx7soeaIZyQh27tHGcRYVm+wCmkIY2E8jHLRPtxZneoTo/8xW6Jw9a9SK
JQT4HbWHWECH76glOSjy6iOKLBiLga8gR5WVQiUJYhYFkmHg+wQWYnzGoYvk3ooU
vbXiUAltYF7G3bcrTV0SzggPDCCYd3MmDHBZSEtfpF9IFy+Gg/fEug33ifUETxuI
iPxJ3XxVAw2/Z4wqJ8/G9aFIg1HULo0g7o6GYzlP0iLTRpnMuvbYTWRpHnXrydZr
+6cZwEifMmbtC9a3OLvPgERO2jKlDYQDa4GaRisfKOaohwpaI67t+JewxfAuu/Dz
e6hD/yQBMNFduwIDAQABo4G8MIG5MAwGA1UdEwEB/wQCMAAwHQYDVR0OBBYEFL6a
6dnecaeWHqfnjN+R32hDGsj7MEIGA1UdIwQ7MDmAFJ4BtIUhKB+h0VC2HbpOVSxF
13droRakFDASMRAwDgYDVQQDDAdkZXZjZXJ0ggkApWt6c+OtnLowDgYDVR0PAQH/
BAQDAgWgMBMGA1UdJQQMMAoGCCsGAQUFBwMBMCEGA1UdEQQaMBiCCWxvY2FsaG9z
dIILKi5sb2NhbGhvc3QwDQYJKoZIhvcNAQELBQADggEBAB7+AuP4sco6msTOqeC3
Ie63rz+7xNefVgDy+pQ820w+MhP+1i+EayFtP01x2yLqV7lShX8hJnDPJfHCJV8F
C+JDTGidvu3lzOsrbm6DVxMgcbuE/g7jVjHtG4FC8CiAL5D2gUvsrjMKzI8U1u7x
BNV/OhiMKl8PW6d4QIrEXBpn5fuAIm5gt+mHXwOmpJmuGLbWeyqWZ8hWtuH8A4Zo
FrRqAZ/1pc5op1BsDag/dz30j/pktX1yqsu/0ug61bSZF9S6H6eapMFjQmRzc1BO
OIYFPeeRHxuz+rydsyV1U0lT75hAIi70xPOwrTVHYBOGoinbPLqkNxYTqsvmOJQi
b3s=
-----END CERTIFICATE-----
